target datalayout = "e-m:e-p270:32:32-p271:32:32-p272:64:64-i64:64-i128:128-f80:128-n8:16:32:64-S128"
target triple = "x86_64-pc-linux-gnu"

@.str.148 = private unnamed_addr constant [34 x i8] c"NBMA Next Hop Resolution Protocol\00", align 1
@.str.149 = private unnamed_addr constant [5 x i8] c"NHRP\00", align 1
@.str.150 = private unnamed_addr constant [5 x i8] c"nhrp\00", align 1
@proto_nhrp = internal global i32 0, align 4
@.str.151 = private unnamed_addr constant [18 x i8] c"auth_ext_has_addr\00", align 1
@.str.152 = private unnamed_addr constant [58 x i8] c"Authentication Extension data contains the source address\00", align 1
@.str.153 = private unnamed_addr constant [130 x i8] c"Whether the Authentication Extension data contains the source address. Some Cisco IOS implementations forgo this part of RFC2332.\00", align 1
@pref_auth_ext_has_addr = internal global i8 1, align 1
@nhrp_handle = internal global ptr null, align 8

; Function Attrs: null_pointer_is_valid sspstrong uwtable
define hidden void @proto_register_nhrp() #0 {
  %1 = alloca ptr, align 8
  %2 = alloca ptr, align 8
  call void @llvm.lifetime.start.p0(i64 8, ptr %1) #6
  call void @llvm.lifetime.start.p0(i64 8, ptr %2) #6
  %3 = call i32 @proto_register_protocol(ptr noundef @.str.148, ptr noundef @.str.149, ptr noundef @.str.150)
  store i32 %3, ptr @proto_nhrp, align 4
  %4 = load i32, ptr @proto_nhrp, align 4
  call void @proto_register_field_array(i32 noundef %4, ptr noundef @proto_register_nhrp.hf, i32 noundef 73)
  call void @proto_register_subtree_array(ptr noundef @proto_register_nhrp.ett, i32 noundef 16)
  %5 = load i32, ptr @proto_nhrp, align 4
  %6 = call ptr @prefs_register_protocol(i32 noundef %5, ptr noundef null)
  store ptr %6, ptr %1, align 8
  %7 = load ptr, ptr %1, align 8
  call void @prefs_register_bool_preference(ptr noundef %7, ptr noundef @.str.151, ptr noundef @.str.152, ptr noundef @.str.153, ptr noundef @pref_auth_ext_has_addr)
  %8 = load i32, ptr @proto_nhrp, align 4
  %9 = call ptr @expert_register_protocol(i32 noundef %8)
  store ptr %9, ptr %2, align 8
  %10 = load ptr, ptr %2, align 8
  call void @expert_register_field_array(ptr noundef %10, ptr noundef @proto_register_nhrp.ei, i32 noundef 6)
  %11 = load i32, ptr @proto_nhrp, align 4
  %12 = call ptr @register_dissector(ptr noundef @.str.150, ptr noundef @dissect_nhrp, i32 noundef %11)
  store ptr %12, ptr @nhrp_handle, align 8
  call void @llvm.lifetime.end.p0(i64 8, ptr %2) #6
  call void @llvm.lifetime.end.p0(i64 8, ptr %1) #6
  ret void
}