; Function Attrs: null_pointer_is_valid sspstrong uwtable
define hidden void @proto_register_nhrp() local_unnamed_addr #0 {
  %1 = tail call i32 @proto_register_protocol(ptr noundef nonnull @.str.148, ptr noundef nonnull @.str.149, ptr noundef nonnull @.str.150)
  store i32 %1, ptr @proto_nhrp, align 4
  tail call void @proto_register_field_array(i32 noundef %1, ptr noundef nonnull @proto_register_nhrp.hf, i32 noundef 73)
  tail call void @proto_register_subtree_array(ptr noundef nonnull @proto_register_nhrp.ett, i32 noundef 16)
  %2 = load i32, ptr @proto_nhrp, align 4
  %3 = tail call ptr @prefs_register_protocol(i32 noundef %2, ptr noundef null)
  tail call void @prefs_register_bool_preference(ptr noundef %3, ptr noundef nonnull @.str.151, ptr noundef nonnull @.str.152, ptr noundef nonnull @.str.153, ptr noundef nonnull @pref_auth_ext_has_addr)
  %4 = load i32, ptr @proto_nhrp, align 4
  %5 = tail call ptr @expert_register_protocol(i32 noundef %4)
  tail call void @expert_register_field_array(ptr noundef %5, ptr noundef nonnull @proto_register_nhrp.ei, i32 noundef 6)
  %6 = load i32, ptr @proto_nhrp, align 4
  %7 = tail call ptr @register_dissector(ptr noundef nonnull @.str.150, ptr noundef nonnull @dissect_nhrp, i32 noundef %6)
  store ptr %7, ptr @nhrp_handle, align 8
  ret void
}